
main.elf:     file format elf32-littleriscv


Disassembly of section .text:

00000000 <_start>:
   0:	30401073          	csrw	mie,zero
   4:	34401073          	csrw	mip,zero
   8:	00008117          	auipc	sp,0x8
   c:	ff810113          	addi	sp,sp,-8 # 8000 <_stack_top>
  10:	18800293          	li	t0,392
  14:	18800313          	li	t1,392
  18:	0062d863          	bge	t0,t1,28 <zero_bss_end>

0000001c <zero_bss_loop>:
  1c:	0002a023          	sw	zero,0(t0)
  20:	00428293          	addi	t0,t0,4
  24:	fe62cce3          	blt	t0,t1,1c <zero_bss_loop>

00000028 <zero_bss_end>:
  28:	08c000ef          	jal	b4 <main>

0000002c <_exit>:
  2c:	0000006f          	j	2c <_exit>

00000030 <uart_putc>:
  30:	40000737          	lui	a4,0x40000
  34:	3e800793          	li	a5,1000
  38:	00a72823          	sw	a0,16(a4) # 40000010 <_stack_top+0x3fff8010>
  3c:	00000013          	nop
  40:	fff78793          	addi	a5,a5,-1
  44:	fe079ce3          	bnez	a5,3c <uart_putc+0xc>
  48:	00008067          	ret

0000004c <uart_puts>:
  4c:	00054783          	lbu	a5,0(a0)
  50:	00050713          	mv	a4,a0
  54:	02078663          	beqz	a5,80 <uart_puts+0x34>
  58:	400006b7          	lui	a3,0x40000
  5c:	01068693          	addi	a3,a3,16 # 40000010 <_stack_top+0x3fff8010>
  60:	00f6a023          	sw	a5,0(a3)
  64:	00170713          	addi	a4,a4,1
  68:	3e800793          	li	a5,1000
  6c:	00000013          	nop
  70:	fff78793          	addi	a5,a5,-1
  74:	fe079ce3          	bnez	a5,6c <uart_puts+0x20>
  78:	00074783          	lbu	a5,0(a4)
  7c:	fe0792e3          	bnez	a5,60 <uart_puts+0x14>
  80:	00008067          	ret

00000084 <busy_wait>:
  84:	ff010113          	addi	sp,sp,-16
  88:	00012623          	sw	zero,12(sp)
  8c:	00c12783          	lw	a5,12(sp)
  90:	00a7de63          	bge	a5,a0,ac <busy_wait+0x28>
  94:	00000013          	nop
  98:	00c12783          	lw	a5,12(sp)
  9c:	00178793          	addi	a5,a5,1
  a0:	00f12623          	sw	a5,12(sp)
  a4:	00c12783          	lw	a5,12(sp)
  a8:	fea7c6e3          	blt	a5,a0,94 <busy_wait+0x10>
  ac:	01010113          	addi	sp,sp,16
  b0:	00008067          	ret

000000b4 <main>:
  b4:	fe010113          	addi	sp,sp,-32
  b8:	00812c23          	sw	s0,24(sp)
  bc:	00112e23          	sw	ra,28(sp)
  c0:	00100713          	li	a4,1
  c4:	200007b7          	lui	a5,0x20000
  c8:	20000437          	lui	s0,0x20000
  cc:	00e7a223          	sw	a4,4(a5) # 20000004 <_stack_top+0x1fff8004>
  d0:	02040413          	addi	s0,s0,32 # 20000020 <_stack_top+0x1fff8020>
  d4:	0e000793          	li	a5,224
  d8:	00f42023          	sw	a5,0(s0)
  dc:	00000517          	auipc	a0,0x0
  e0:	09c50513          	addi	a0,a0,156 # 178 <main+0xc4>
  e4:	f69ff0ef          	jal	4c <uart_puts>
  e8:	0007a737          	lui	a4,0x7a
  ec:	01c00593          	li	a1,28
  f0:	11f70713          	addi	a4,a4,287 # 7a11f <_stack_top+0x7211f>
  f4:	0ff00613          	li	a2,255
  f8:	0e000693          	li	a3,224
  fc:	00b42023          	sw	a1,0(s0)
 100:	00012623          	sw	zero,12(sp)
 104:	00c12783          	lw	a5,12(sp)
 108:	00f74e63          	blt	a4,a5,124 <main+0x70>
 10c:	00000013          	nop
 110:	00c12783          	lw	a5,12(sp)
 114:	00178793          	addi	a5,a5,1
 118:	00f12623          	sw	a5,12(sp)
 11c:	00c12783          	lw	a5,12(sp)
 120:	fef756e3          	bge	a4,a5,10c <main+0x58>
 124:	00c42023          	sw	a2,0(s0)
 128:	00012423          	sw	zero,8(sp)
 12c:	00812783          	lw	a5,8(sp)
 130:	00f74e63          	blt	a4,a5,14c <main+0x98>
 134:	00000013          	nop
 138:	00812783          	lw	a5,8(sp)
 13c:	00178793          	addi	a5,a5,1
 140:	00f12423          	sw	a5,8(sp)
 144:	00812783          	lw	a5,8(sp)
 148:	fef756e3          	bge	a4,a5,134 <main+0x80>
 14c:	00d42023          	sw	a3,0(s0)
 150:	00012223          	sw	zero,4(sp)
 154:	00412783          	lw	a5,4(sp)
 158:	faf742e3          	blt	a4,a5,fc <main+0x48>
 15c:	00000013          	nop
 160:	00412783          	lw	a5,4(sp)
 164:	00178793          	addi	a5,a5,1
 168:	00f12223          	sw	a5,4(sp)
 16c:	00412783          	lw	a5,4(sp)
 170:	fef756e3          	bge	a4,a5,15c <main+0xa8>
 174:	f89ff06f          	j	fc <main+0x48>
 178:	4756                	.insn	2, 0x4756
 17a:	2041                	.insn	2, 0x2041
 17c:	6552                	.insn	2, 0x6552
 17e:	2064                	.insn	2, 0x2064
 180:	6554                	.insn	2, 0x6554
 182:	0a0d7473          	csrrci	s0,0xa0,26
	...
